target datalayout = "e-m:e-p270:32:32-p271:32:32-p272:64:64-i64:64-i128:128-f80:128-n8:16:32:64-S128"
target triple = "x86_64-pc-linux-gnu"

%struct.PaPulseAudio_HostApiRepresentation = type { %struct.PaUtilHostApiRepresentation, %struct.PaUtilStreamInterface, %struct.PaUtilStreamInterface, ptr, i32, [1024 x %struct.PaDeviceInfo], [1024 x ptr], %struct.pa_sample_spec, ptr, ptr, ptr, i32, ptr }
%struct.PaUtilHostApiRepresentation = type { %struct.PaUtilPrivatePaFrontHostApiInfo, %struct.PaHostApiInfo, ptr, ptr, ptr, ptr }
%struct.PaUtilPrivatePaFrontHostApiInfo = type { i64 }
%struct.PaHostApiInfo = type { i32, i32, ptr, i32, i32, i32 }
%struct.PaUtilStreamInterface = type { ptr, ptr, ptr, ptr, ptr, ptr, ptr, ptr, ptr, ptr, ptr, ptr }
%struct.PaDeviceInfo = type { i32, ptr, i32, i32, i32, double, double, double, double, double }
%struct.pa_sample_spec = type { i32, i32, i8 }
%struct.pa_server_info = type { ptr, ptr, ptr, ptr, %struct.pa_sample_spec, ptr, ptr, i32, %struct.pa_channel_map }
%struct.pa_channel_map = type { i8, [32 x i32] }

@.str.7 = private unnamed_addr constant [68 x i8] c"PaPulseAudio_ServerInfoCb: Invalid context or can't get server info\00", align 1

; Function Attrs: nounwind uwtable
define void @PaPulseAudio_ServerInfoCb(ptr noundef %0, ptr noundef %1, ptr noundef %2) #0 {
  %4 = alloca ptr, align 8
  %5 = alloca ptr, align 8
  %6 = alloca ptr, align 8
  %7 = alloca ptr, align 8
  store ptr %0, ptr %4, align 8
  store ptr %1, ptr %5, align 8
  store ptr %2, ptr %6, align 8
  %8 = load ptr, ptr %6, align 8
  store ptr %8, ptr %7, align 8
  %9 = load ptr, ptr %4, align 8
  %10 = icmp ne ptr %9, null
  br i1 %10, label %11, label %14

11:                                               ; preds = %3
  %12 = load ptr, ptr %5, align 8
  %13 = icmp ne ptr %12, null
  br i1 %13, label %18, label %14

14:                                               ; preds = %11, %3
  call void @PaUtil_SetLastHostErrorInfo(i32 noundef 0, i64 noundef 0, ptr noundef @.str.7)
  %15 = load ptr, ptr %7, align 8
  %16 = getelementptr inbounds nuw %struct.PaPulseAudio_HostApiRepresentation, ptr %15, i32 0, i32 8
  %17 = load ptr, ptr %16, align 8
  call void @pa_threaded_mainloop_signal(ptr noundef %17, i32 noundef 0)
  br label %26

18:                                               ; preds = %11
  %19 = load ptr, ptr %7, align 8
  %20 = getelementptr inbounds nuw %struct.PaPulseAudio_HostApiRepresentation, ptr %19, i32 0, i32 7
  %21 = load ptr, ptr %5, align 8
  %22 = getelementptr inbounds nuw %struct.pa_server_info, ptr %21, i32 0, i32 4
  call void @llvm.memcpy.p0.p0.i64(ptr align 8 %20, ptr align 8 %22, i64 12, i1 false)
  %23 = load ptr, ptr %7, align 8
  %24 = getelementptr inbounds nuw %struct.PaPulseAudio_HostApiRepresentation, ptr %23, i32 0, i32 8
  %25 = load ptr, ptr %24, align 8
  call void @pa_threaded_mainloop_signal(ptr noundef %25, i32 noundef 0)
  br label %26

26:                                               ; preds = %18, %14
  ret void
}