; Function Attrs: nounwind uwtable
define void @PaPulseAudio_ServerInfoCb(ptr noundef readnone %0, ptr noundef readonly %1, ptr nocapture noundef %2) #0 {
  %4 = icmp ne ptr %0, null
  %5 = icmp ne ptr %1, null
  %or.cond = and i1 %4, %5
  br i1 %or.cond, label %7, label %6

6:                                                ; preds = %3
  tail call void @PaUtil_SetLastHostErrorInfo(i32 noundef 0, i64 noundef 0, ptr noundef nonnull @.str.7) #13
  br label %10

7:                                                ; preds = %3
  %8 = getelementptr inbounds nuw i8, ptr %2, i64 82200
  %9 = getelementptr inbounds nuw i8, ptr %1, i64 32
  tail call void @llvm.memcpy.p0.p0.i64(ptr noundef nonnull align 8 dereferenceable(12) %8, ptr noundef nonnull align 8 dereferenceable(12) %9, i64 12, i1 false)
  br label %10

10:                                               ; preds = %7, %6
  %11 = getelementptr inbounds nuw i8, ptr %2, i64 82216
  %12 = load ptr, ptr %11, align 8
  tail call void @pa_threaded_mainloop_signal(ptr noundef %12, i32 noundef 0) #13
  ret void
}